; Function Attrs: mustprogress uwtable
define hidden void @_ZNK3smt5enode12display_lblsERSo(ptr noundef nonnull align 8 dereferenceable(112) %this, ptr noundef nonnull align 8 dereferenceable(8) %out) local_unnamed_addr #3 align 2 {
entry:
  %call = tail call noundef nonnull align 8 dereferenceable(8) ptr @_ZStlsISt11char_traitsIcEERSt13basic_ostreamIcT_ES5_PKc(ptr noundef nonnull align 8 dereferenceable(8) %out, ptr noundef nonnull @.str)
  %0 = load ptr, ptr %this, align 8
  %1 = load i32, ptr %0, align 4
  %call3 = tail call noundef nonnull align 8 dereferenceable(8) ptr @_ZNSolsEj(ptr noundef nonnull align 8 dereferenceable(8) %call, i32 noundef %1)
  %call4 = tail call noundef nonnull align 8 dereferenceable(8) ptr @_ZStlsISt11char_traitsIcEERSt13basic_ostreamIcT_ES5_PKc(ptr noundef nonnull align 8 dereferenceable(8) %call3, ptr noundef nonnull @.str.7)
  %m_root.i = getelementptr inbounds i8, ptr %this, i64 8
  %2 = load ptr, ptr %m_root.i, align 8
  %3 = load ptr, ptr %2, align 8
  %4 = load i32, ptr %3, align 4
  %call7 = tail call noundef nonnull align 8 dereferenceable(8) ptr @_ZNSolsEj(ptr noundef nonnull align 8 dereferenceable(8) %call4, i32 noundef %4)
  %call8 = tail call noundef nonnull align 8 dereferenceable(8) ptr @_ZStlsISt11char_traitsIcEERSt13basic_ostreamIcT_ES5_PKc(ptr noundef nonnull align 8 dereferenceable(8) %call7, ptr noundef nonnull @.str.8)
  %m_lbls.i = getelementptr inbounds i8, ptr %this, i64 96
  tail call void @_ZNK10approx_set7displayERSo(ptr noundef nonnull align 8 dereferenceable(8) %m_lbls.i, ptr noundef nonnull align 8 dereferenceable(8) %call8)
  %call11 = tail call noundef nonnull align 8 dereferenceable(8) ptr @_ZStlsISt11char_traitsIcEERSt13basic_ostreamIcT_ES5_PKc(ptr noundef nonnull align 8 dereferenceable(8) %call8, ptr noundef nonnull @.str.9)
  %m_plbls.i = getelementptr inbounds i8, ptr %this, i64 104
  tail call void @_ZNK10approx_set7displayERSo(ptr noundef nonnull align 8 dereferenceable(8) %m_plbls.i, ptr noundef nonnull align 8 dereferenceable(8) %call11)
  %call14 = tail call noundef nonnull align 8 dereferenceable(8) ptr @_ZStlsISt11char_traitsIcEERSt13basic_ostreamIcT_ES5_PKc(ptr noundef nonnull align 8 dereferenceable(8) %call11, ptr noundef nonnull @.str.10)
  %5 = load ptr, ptr %m_root.i, align 8
  %m_lbls.i4 = getelementptr inbounds i8, ptr %5, i64 96
  tail call void @_ZNK10approx_set7displayERSo(ptr noundef nonnull align 8 dereferenceable(8) %m_lbls.i4, ptr noundef nonnull align 8 dereferenceable(8) %call14)
  %call18 = tail call noundef nonnull align 8 dereferenceable(8) ptr @_ZStlsISt11char_traitsIcEERSt13basic_ostreamIcT_ES5_PKc(ptr noundef nonnull align 8 dereferenceable(8) %call14, ptr noundef nonnull @.str.11)
  %6 = load ptr, ptr %m_root.i, align 8
  %m_plbls.i6 = getelementptr inbounds i8, ptr %6, i64 104
  tail call void @_ZNK10approx_set7displayERSo(ptr noundef nonnull align 8 dereferenceable(8) %m_plbls.i6, ptr noundef nonnull align 8 dereferenceable(8) %call18)
  %m_lbl_hash.i = getelementptr inbounds i8, ptr %this, i64 53
  %7 = load i8, ptr %m_lbl_hash.i, align 1
  %cmp.i = icmp sgt i8 %7, -1
  br i1 %cmp.i, label %if.then, label %if.end

if.then:                                          ; preds = %entry
  %call23 = tail call noundef nonnull align 8 dereferenceable(8) ptr @_ZStlsISt11char_traitsIcEERSt13basic_ostreamIcT_ES5_PKc(ptr noundef nonnull align 8 dereferenceable(8) %out, ptr noundef nonnull @.str.12)
  %8 = load i8, ptr %m_lbl_hash.i, align 1
  %conv = zext i8 %8 to i32
  %call25 = tail call noundef nonnull align 8 dereferenceable(8) ptr @_ZNSolsEi(ptr noundef nonnull align 8 dereferenceable(8) %call23, i32 noundef %conv)
  br label %if.end

if.end:                                           ; preds = %if.then, %entry
  %call26 = tail call noundef nonnull align 8 dereferenceable(8) ptr @_ZStlsISt11char_traitsIcEERSt13basic_ostreamIcT_ES5_PKc(ptr noundef nonnull align 8 dereferenceable(8) %out, ptr noundef nonnull @.str.13)
  ret void
}